target datalayout = "e-m:e-p270:32:32-p271:32:32-p272:64:64-i64:64-i128:128-f80:128-n8:16:32:64-S128"
target triple = "x86_64-pc-linux-gnu"

%"class.std::__cxx11::basic_string" = type { %"struct.std::__cxx11::basic_string<char>::_Alloc_hider", i64, %union.anon }
%"struct.std::__cxx11::basic_string<char>::_Alloc_hider" = type { ptr }
%union.anon = type { i64, [8 x i8] }
%"class.gmx::OptionsVisitor" = type { ptr }
%"class.gmx::(anonymous namespace)::OptionCompletionWriter" = type { %"class.gmx::OptionsVisitor", ptr }

@.str.23 = private unnamed_addr constant [6 x i8] c"-%s) \00", align 1
@.str.24 = private unnamed_addr constant [19 x i8] c"(( $n <= %d )) && \00", align 1
@.str.25 = private unnamed_addr constant [15 x i8] c"COMPREPLY=( $(\00", align 1
@.str.26 = private unnamed_addr constant [5 x i8] c"));;\00", align 1

; Function Attrs: mustprogress uwtable
define internal void @_ZN3gmx12_GLOBAL__N_122OptionCompletionWriter21writeOptionCompletionERKNS_10OptionInfoERKNSt7__cxx1112basic_stringIcSt11char_traitsIcESaIcEEE(ptr noundef nonnull align 8 dereferenceable(16) %0, ptr noundef nonnull align 8 dereferenceable(16) %1, ptr noundef nonnull align 8 dereferenceable(32) %2) #0 align 2 personality ptr @__gxx_personality_v0 {
  %4 = alloca ptr, align 8
  %5 = alloca ptr, align 8
  %6 = alloca ptr, align 8
  %7 = alloca %"class.std::__cxx11::basic_string", align 8
  %8 = alloca ptr, align 8
  %9 = alloca i32, align 4
  %10 = alloca %"class.std::__cxx11::basic_string", align 8
  store ptr %0, ptr %4, align 8
  store ptr %1, ptr %5, align 8
  store ptr %2, ptr %6, align 8
  %11 = load ptr, ptr %4, align 8
  %12 = load ptr, ptr %5, align 8
  %13 = call noundef nonnull align 8 dereferenceable(32) ptr @_ZNK3gmx10OptionInfo4nameB5cxx11Ev(ptr noundef nonnull align 8 dereferenceable(16) %12)
  %14 = call noundef ptr @_ZNKSt7__cxx1112basic_stringIcSt11char_traitsIcESaIcEE5c_strEv(ptr noundef nonnull align 8 dereferenceable(32) %13) #13
  call void (ptr, ptr, ...) @_ZN3gmx12formatStringB5cxx11EPKcz(ptr dead_on_unwind writable sret(%"class.std::__cxx11::basic_string") align 8 %7, ptr noundef @.str.23, ptr noundef %14)
  %15 = load ptr, ptr %5, align 8
  %16 = invoke noundef i32 @_ZNK3gmx10OptionInfo13maxValueCountEv(ptr noundef nonnull align 8 dereferenceable(16) %15)
          to label %17 unwind label %26

17:                                               ; preds = %3
  %18 = icmp sge i32 %16, 0
  br i1 %18, label %19, label %34

19:                                               ; preds = %17
  %20 = load ptr, ptr %5, align 8
  %21 = invoke noundef i32 @_ZNK3gmx10OptionInfo13maxValueCountEv(ptr noundef nonnull align 8 dereferenceable(16) %20)
          to label %22 unwind label %26

22:                                               ; preds = %19
  invoke void (ptr, ptr, ...) @_ZN3gmx12formatStringB5cxx11EPKcz(ptr dead_on_unwind writable sret(%"class.std::__cxx11::basic_string") align 8 %10, ptr noundef @.str.24, i32 noundef %21)
          to label %23 unwind label %26

23:                                               ; preds = %22
  %24 = invoke noundef nonnull align 8 dereferenceable(32) ptr @_ZNSt7__cxx1112basic_stringIcSt11char_traitsIcESaIcEE6appendERKS4_(ptr noundef nonnull align 8 dereferenceable(32) %7, ptr noundef nonnull align 8 dereferenceable(32) %10)
          to label %25 unwind label %30

25:                                               ; preds = %23
  call void @_ZNSt7__cxx1112basic_stringIcSt11char_traitsIcESaIcEED1Ev(ptr noundef nonnull align 8 dereferenceable(32) %10) #13
  br label %34

26:                                               ; preds = %41, %39, %36, %34, %22, %19, %3
  %27 = landingpad { ptr, i32 }
          cleanup
  %28 = extractvalue { ptr, i32 } %27, 0
  store ptr %28, ptr %8, align 8
  %29 = extractvalue { ptr, i32 } %27, 1
  store i32 %29, ptr %9, align 4
  br label %45

30:                                               ; preds = %23
  %31 = landingpad { ptr, i32 }
          cleanup
  %32 = extractvalue { ptr, i32 } %31, 0
  store ptr %32, ptr %8, align 8
  %33 = extractvalue { ptr, i32 } %31, 1
  store i32 %33, ptr %9, align 4
  call void @_ZNSt7__cxx1112basic_stringIcSt11char_traitsIcESaIcEED1Ev(ptr noundef nonnull align 8 dereferenceable(32) %10) #13
  br label %45

34:                                               ; preds = %25, %17
  %35 = invoke noundef nonnull align 8 dereferenceable(32) ptr @_ZNSt7__cxx1112basic_stringIcSt11char_traitsIcESaIcEE6appendEPKc(ptr noundef nonnull align 8 dereferenceable(32) %7, ptr noundef @.str.25)
          to label %36 unwind label %26

36:                                               ; preds = %34
  %37 = load ptr, ptr %6, align 8
  %38 = invoke noundef nonnull align 8 dereferenceable(32) ptr @_ZNSt7__cxx1112basic_stringIcSt11char_traitsIcESaIcEE6appendERKS4_(ptr noundef nonnull align 8 dereferenceable(32) %7, ptr noundef nonnull align 8 dereferenceable(32) %37)
          to label %39 unwind label %26

39:                                               ; preds = %36
  %40 = invoke noundef nonnull align 8 dereferenceable(32) ptr @_ZNSt7__cxx1112basic_stringIcSt11char_traitsIcESaIcEE6appendEPKc(ptr noundef nonnull align 8 dereferenceable(32) %7, ptr noundef @.str.26)
          to label %41 unwind label %26

41:                                               ; preds = %39
  %42 = getelementptr inbounds %"class.gmx::(anonymous namespace)::OptionCompletionWriter", ptr %11, i32 0, i32 1
  %43 = load ptr, ptr %42, align 8
  invoke void @_ZN3gmx10TextWriter9writeLineERKNSt7__cxx1112basic_stringIcSt11char_traitsIcESaIcEEE(ptr noundef nonnull align 8 dereferenceable(8) %43, ptr noundef nonnull align 8 dereferenceable(32) %7)
          to label %44 unwind label %26

44:                                               ; preds = %41
  call void @_ZNSt7__cxx1112basic_stringIcSt11char_traitsIcESaIcEED1Ev(ptr noundef nonnull align 8 dereferenceable(32) %7) #13
  ret void

45:                                               ; preds = %30, %26
  call void @_ZNSt7__cxx1112basic_stringIcSt11char_traitsIcESaIcEED1Ev(ptr noundef nonnull align 8 dereferenceable(32) %7) #13
  br label %46

46:                                               ; preds = %45
  %47 = load ptr, ptr %8, align 8
  %48 = load i32, ptr %9, align 4
  %49 = insertvalue { ptr, i32 } poison, ptr %47, 0
  %50 = insertvalue { ptr, i32 } %49, i32 %48, 1
  resume { ptr, i32 } %50
}