; Function Attrs: mustprogress uwtable
define internal fastcc void @_ZN3gmx12_GLOBAL__N_122OptionCompletionWriter21writeOptionCompletionERKNS_10OptionInfoERKNSt7__cxx1112basic_stringIcSt11char_traitsIcESaIcEEE(ptr nocapture noundef nonnull readonly align 8 dereferenceable(16) %0, ptr noundef nonnull align 8 dereferenceable(16) %1, ptr noundef nonnull align 8 dereferenceable(32) %2) unnamed_addr #0 align 2 personality ptr @__gxx_personality_v0 {
  %4 = alloca %"class.std::__cxx11::basic_string", align 8
  %5 = alloca %"class.std::__cxx11::basic_string", align 8
  %6 = tail call noundef nonnull align 8 dereferenceable(32) ptr @_ZNK3gmx10OptionInfo4nameB5cxx11Ev(ptr noundef nonnull align 8 dereferenceable(16) %1)
  %7 = tail call noundef ptr @_ZNKSt7__cxx1112basic_stringIcSt11char_traitsIcESaIcEE5c_strEv(ptr noundef nonnull align 8 dereferenceable(32) %6) #15
  call void (ptr, ptr, ...) @_ZN3gmx12formatStringB5cxx11EPKcz(ptr dead_on_unwind nonnull writable sret(%"class.std::__cxx11::basic_string") align 8 %4, ptr noundef nonnull @.str.23, ptr noundef %7)
  %8 = invoke noundef i32 @_ZNK3gmx10OptionInfo13maxValueCountEv(ptr noundef nonnull align 8 dereferenceable(16) %1)
          to label %9 unwind label %17

9:                                                ; preds = %3
  %10 = icmp sgt i32 %8, -1
  br i1 %10, label %11, label %21

11:                                               ; preds = %9
  %12 = invoke noundef i32 @_ZNK3gmx10OptionInfo13maxValueCountEv(ptr noundef nonnull align 8 dereferenceable(16) %1)
          to label %13 unwind label %17

13:                                               ; preds = %11
  invoke void (ptr, ptr, ...) @_ZN3gmx12formatStringB5cxx11EPKcz(ptr dead_on_unwind nonnull writable sret(%"class.std::__cxx11::basic_string") align 8 %5, ptr noundef nonnull @.str.24, i32 noundef %12)
          to label %14 unwind label %17

14:                                               ; preds = %13
  %15 = invoke noundef nonnull align 8 dereferenceable(32) ptr @_ZNSt7__cxx1112basic_stringIcSt11char_traitsIcESaIcEE6appendERKS4_(ptr noundef nonnull align 8 dereferenceable(32) %4, ptr noundef nonnull align 8 dereferenceable(32) %5)
          to label %16 unwind label %19

16:                                               ; preds = %14
  call void @_ZNSt7__cxx1112basic_stringIcSt11char_traitsIcESaIcEED1Ev(ptr noundef nonnull align 8 dereferenceable(32) %5) #15
  br label %21

17:                                               ; preds = %27, %25, %23, %21, %13, %11, %3
  %18 = landingpad { ptr, i32 }
          cleanup
  br label %31

19:                                               ; preds = %14
  %20 = landingpad { ptr, i32 }
          cleanup
  call void @_ZNSt7__cxx1112basic_stringIcSt11char_traitsIcESaIcEED1Ev(ptr noundef nonnull align 8 dereferenceable(32) %5) #15
  br label %31

21:                                               ; preds = %16, %9
  %22 = invoke noundef nonnull align 8 dereferenceable(32) ptr @_ZNSt7__cxx1112basic_stringIcSt11char_traitsIcESaIcEE6appendEPKc(ptr noundef nonnull align 8 dereferenceable(32) %4, ptr noundef nonnull @.str.25)
          to label %23 unwind label %17

23:                                               ; preds = %21
  %24 = invoke noundef nonnull align 8 dereferenceable(32) ptr @_ZNSt7__cxx1112basic_stringIcSt11char_traitsIcESaIcEE6appendERKS4_(ptr noundef nonnull align 8 dereferenceable(32) %4, ptr noundef nonnull align 8 dereferenceable(32) %2)
          to label %25 unwind label %17

25:                                               ; preds = %23
  %26 = invoke noundef nonnull align 8 dereferenceable(32) ptr @_ZNSt7__cxx1112basic_stringIcSt11char_traitsIcESaIcEE6appendEPKc(ptr noundef nonnull align 8 dereferenceable(32) %4, ptr noundef nonnull @.str.26)
          to label %27 unwind label %17

27:                                               ; preds = %25
  %28 = getelementptr inbounds i8, ptr %0, i64 8
  %29 = load ptr, ptr %28, align 8
  invoke void @_ZN3gmx10TextWriter9writeLineERKNSt7__cxx1112basic_stringIcSt11char_traitsIcESaIcEEE(ptr noundef nonnull align 8 dereferenceable(8) %29, ptr noundef nonnull align 8 dereferenceable(32) %4)
          to label %30 unwind label %17

30:                                               ; preds = %27
  call void @_ZNSt7__cxx1112basic_stringIcSt11char_traitsIcESaIcEED1Ev(ptr noundef nonnull align 8 dereferenceable(32) %4) #15
  ret void

31:                                               ; preds = %19, %17
  %.pn = phi { ptr, i32 } [ %18, %17 ], [ %20, %19 ]
  call void @_ZNSt7__cxx1112basic_stringIcSt11char_traitsIcESaIcEED1Ev(ptr noundef nonnull align 8 dereferenceable(32) %4) #15
  resume { ptr, i32 } %.pn
}